ccopy_reg
_reconstructor
p0
(cTree
Tree
p1
c__builtin__
object
p2
Ntp3
Rp4
(dp5
S'data'
p6
I74
sS'children'
p7
(lp8
g0
(g1
g2
Ntp9
Rp10
(dp11
g6
S'1'
p12
sg7
(lp13
g0
(g1
g2
Ntp14
Rp15
(dp16
g6
I161
sg7
(lp17
g0
(g1
g2
Ntp18
Rp19
(dp20
g6
g12
sg7
(lp21
g0
(g1
g2
Ntp22
Rp23
(dp24
g6
I0
sg7
(lp25
g0
(g1
g2
Ntp26
Rp27
(dp28
g6
g12
sg7
(lp29
g0
(g1
g2
Ntp30
Rp31
(dp32
g6
g12
sg7
(lp33
sbasbag0
(g1
g2
Ntp34
Rp35
(dp36
g6
S'0'
p37
sg7
(lp38
g0
(g1
g2
Ntp39
Rp40
(dp41
g6
I7
sg7
(lp42
g0
(g1
g2
Ntp43
Rp44
(dp45
g6
g12
sg7
(lp46
g0
(g1
g2
Ntp47
Rp48
(dp49
g6
g12
sg7
(lp50
sbasbag0
(g1
g2
Ntp51
Rp52
(dp53
g6
g37
sg7
(lp54
g0
(g1
g2
Ntp55
Rp56
(dp57
g6
I274
sg7
(lp58
g0
(g1
g2
Ntp59
Rp60
(dp61
g6
g12
sg7
(lp62
g0
(g1
g2
Ntp63
Rp64
(dp65
g6
I1
sg7
(lp66
g0
(g1
g2
Ntp67
Rp68
(dp69
g6
g37
sg7
(lp70
g0
(g1
g2
Ntp71
Rp72
(dp73
g6
I1
sg7
(lp74
g0
(g1
g2
Ntp75
Rp76
(dp77
g6
g37
sg7
(lp78
g0
(g1
g2
Ntp79
Rp80
(dp81
g6
I1
sg7
(lp82
g0
(g1
g2
Ntp83
Rp84
(dp85
g6
g37
sg7
(lp86
g0
(g1
g2
Ntp87
Rp88
(dp89
g6
I1
sg7
(lp90
g0
(g1
g2
Ntp91
Rp92
(dp93
g6
g37
sg7
(lp94
g0
(g1
g2
Ntp95
Rp96
(dp97
g6
I1
sg7
(lp98
g0
(g1
g2
Ntp99
Rp100
(dp101
g6
g37
sg7
(lp102
g0
(g1
g2
Ntp103
Rp104
(dp105
g6
g37
sg7
(lp106
sbasbasbasbasbasbasbasbasbasbasbasbag0
(g1
g2
Ntp107
Rp108
(dp109
g6
g37
sg7
(lp110
g0
(g1
g2
Ntp111
Rp112
(dp113
g6
g37
sg7
(lp114
sbasbasbasbasbasbasbasbag0
(g1
g2
Ntp115
Rp116
(dp117
g6
g37
sg7
(lp118
g0
(g1
g2
Ntp119
Rp120
(dp121
g6
I243
sg7
(lp122
g0
(g1
g2
Ntp123
Rp124
(dp125
g6
g12
sg7
(lp126
g0
(g1
g2
Ntp127
Rp128
(dp129
g6
I281
sg7
(lp130
g0
(g1
g2
Ntp131
Rp132
(dp133
g6
g12
sg7
(lp134
g0
(g1
g2
Ntp135
Rp136
(dp137
g6
g37
sg7
(lp138
sbasbag0
(g1
g2
Ntp139
Rp140
(dp141
g6
g37
sg7
(lp142
g0
(g1
g2
Ntp143
Rp144
(dp145
g6
I274
sg7
(lp146
g0
(g1
g2
Ntp147
Rp148
(dp149
g6
g12
sg7
(lp150
g0
(g1
g2
Ntp151
Rp152
(dp153
g6
g12
sg7
(lp154
sbasbag0
(g1
g2
Ntp155
Rp156
(dp157
g6
g37
sg7
(lp158
g0
(g1
g2
Ntp159
Rp160
(dp161
g6
I228
sg7
(lp162
g0
(g1
g2
Ntp163
Rp164
(dp165
g6
g12
sg7
(lp166
g0
(g1
g2
Ntp167
Rp168
(dp169
g6
g12
sg7
(lp170
sbasbag0
(g1
g2
Ntp171
Rp172
(dp173
g6
g37
sg7
(lp174
g0
(g1
g2
Ntp175
Rp176
(dp177
g6
I0
sg7
(lp178
g0
(g1
g2
Ntp179
Rp180
(dp181
g6
g37
sg7
(lp182
g0
(g1
g2
Ntp183
Rp184
(dp185
g6
I0
sg7
(lp186
g0
(g1
g2
Ntp187
Rp188
(dp189
g6
g37
sg7
(lp190
g0
(g1
g2
Ntp191
Rp192
(dp193
g6
I0
sg7
(lp194
g0
(g1
g2
Ntp195
Rp196
(dp197
g6
g37
sg7
(lp198
g0
(g1
g2
Ntp199
Rp200
(dp201
g6
I0
sg7
(lp202
g0
(g1
g2
Ntp203
Rp204
(dp205
g6
g37
sg7
(lp206
g0
(g1
g2
Ntp207
Rp208
(dp209
g6
g37
sg7
(lp210
sbasbasbasbasbasbasbasbasbasbasbasbasbasbasbasbag0
(g1
g2
Ntp211
Rp212
(dp213
g6
g37
sg7
(lp214
g0
(g1
g2
Ntp215
Rp216
(dp217
g6
I274
sg7
(lp218
g0
(g1
g2
Ntp219
Rp220
(dp221
g6
g12
sg7
(lp222
g0
(g1
g2
Ntp223
Rp224
(dp225
g6
I171
sg7
(lp226
g0
(g1
g2
Ntp227
Rp228
(dp229
g6
g12
sg7
(lp230
g0
(g1
g2
Ntp231
Rp232
(dp233
g6
I197
sg7
(lp234
g0
(g1
g2
Ntp235
Rp236
(dp237
g6
g12
sg7
(lp238
g0
(g1
g2
Ntp239
Rp240
(dp241
g6
g37
sg7
(lp242
sbasbag0
(g1
g2
Ntp243
Rp244
(dp245
g6
g37
sg7
(lp246
g0
(g1
g2
Ntp247
Rp248
(dp249
g6
g12
sg7
(lp250
sbasbasbasbag0
(g1
g2
Ntp251
Rp252
(dp253
g6
g37
sg7
(lp254
g0
(g1
g2
Ntp255
Rp256
(dp257
g6
I117
sg7
(lp258
g0
(g1
g2
Ntp259
Rp260
(dp261
g6
g12
sg7
(lp262
g0
(g1
g2
Ntp263
Rp264
(dp265
g6
g37
sg7
(lp266
sbasbag0
(g1
g2
Ntp267
Rp268
(dp269
g6
g37
sg7
(lp270
g0
(g1
g2
Ntp271
Rp272
(dp273
g6
I238
sg7
(lp274
g0
(g1
g2
Ntp275
Rp276
(dp277
g6
g12
sg7
(lp278
g0
(g1
g2
Ntp279
Rp280
(dp281
g6
I0
sg7
(lp282
g0
(g1
g2
Ntp283
Rp284
(dp285
g6
g12
sg7
(lp286
g0
(g1
g2
Ntp287
Rp288
(dp289
g6
g12
sg7
(lp290
sbasbag0
(g1
g2
Ntp291
Rp292
(dp293
g6
g37
sg7
(lp294
g0
(g1
g2
Ntp295
Rp296
(dp297
g6
I201
sg7
(lp298
g0
(g1
g2
Ntp299
Rp300
(dp301
g6
g12
sg7
(lp302
g0
(g1
g2
Ntp303
Rp304
(dp305
g6
g12
sg7
(lp306
sbasbag0
(g1
g2
Ntp307
Rp308
(dp309
g6
g37
sg7
(lp310
g0
(g1
g2
Ntp311
Rp312
(dp313
g6
I253
sg7
(lp314
g0
(g1
g2
Ntp315
Rp316
(dp317
g6
g12
sg7
(lp318
g0
(g1
g2
Ntp319
Rp320
(dp321
g6
g12
sg7
(lp322
sbasbag0
(g1
g2
Ntp323
Rp324
(dp325
g6
g37
sg7
(lp326
g0
(g1
g2
Ntp327
Rp328
(dp329
g6
g12
sg7
(lp330
sbasbasbasbasbasbasbasbag0
(g1
g2
Ntp331
Rp332
(dp333
g6
g37
sg7
(lp334
g0
(g1
g2
Ntp335
Rp336
(dp337
g6
I162
sg7
(lp338
g0
(g1
g2
Ntp339
Rp340
(dp341
g6
g12
sg7
(lp342
g0
(g1
g2
Ntp343
Rp344
(dp345
g6
I198
sg7
(lp346
g0
(g1
g2
Ntp347
Rp348
(dp349
g6
g12
sg7
(lp350
g0
(g1
g2
Ntp351
Rp352
(dp353
g6
g37
sg7
(lp354
sbasbag0
(g1
g2
Ntp355
Rp356
(dp357
g6
g37
sg7
(lp358
g0
(g1
g2
Ntp359
Rp360
(dp361
g6
I279
sg7
(lp362
g0
(g1
g2
Ntp363
Rp364
(dp365
g6
g12
sg7
(lp366
g0
(g1
g2
Ntp367
Rp368
(dp369
g6
g37
sg7
(lp370
sbasbag0
(g1
g2
Ntp371
Rp372
(dp373
g6
g37
sg7
(lp374
g0
(g1
g2
Ntp375
Rp376
(dp377
g6
g12
sg7
(lp378
sbasbasbasbasbasbag0
(g1
g2
Ntp379
Rp380
(dp381
g6
g37
sg7
(lp382
g0
(g1
g2
Ntp383
Rp384
(dp385
g6
I159
sg7
(lp386
g0
(g1
g2
Ntp387
Rp388
(dp389
g6
g12
sg7
(lp390
g0
(g1
g2
Ntp391
Rp392
(dp393
g6
g37
sg7
(lp394
sbasbag0
(g1
g2
Ntp395
Rp396
(dp397
g6
g37
sg7
(lp398
g0
(g1
g2
Ntp399
Rp400
(dp401
g6
I225
sg7
(lp402
g0
(g1
g2
Ntp403
Rp404
(dp405
g6
g12
sg7
(lp406
g0
(g1
g2
Ntp407
Rp408
(dp409
g6
g37
sg7
(lp410
sbasbag0
(g1
g2
Ntp411
Rp412
(dp413
g6
g37
sg7
(lp414
g0
(g1
g2
Ntp415
Rp416
(dp417
g6
g12
sg7
(lp418
sbasbasbasbasbasbasbasbasbasbasbasbasbasbag0
(g1
g2
Ntp419
Rp420
(dp421
g6
g37
sg7
(lp422
g0
(g1
g2
Ntp423
Rp424
(dp425
g6
I180
sg7
(lp426
g0
(g1
g2
Ntp427
Rp428
(dp429
g6
g12
sg7
(lp430
g0
(g1
g2
Ntp431
Rp432
(dp433
g6
I18
sg7
(lp434
g0
(g1
g2
Ntp435
Rp436
(dp437
g6
g12
sg7
(lp438
g0
(g1
g2
Ntp439
Rp440
(dp441
g6
g12
sg7
(lp442
sbasbag0
(g1
g2
Ntp443
Rp444
(dp445
g6
g37
sg7
(lp446
g0
(g1
g2
Ntp447
Rp448
(dp449
g6
I281
sg7
(lp450
g0
(g1
g2
Ntp451
Rp452
(dp453
g6
g12
sg7
(lp454
g0
(g1
g2
Ntp455
Rp456
(dp457
g6
g12
sg7
(lp458
sbasbag0
(g1
g2
Ntp459
Rp460
(dp461
g6
g37
sg7
(lp462
g0
(g1
g2
Ntp463
Rp464
(dp465
g6
I252
sg7
(lp466
g0
(g1
g2
Ntp467
Rp468
(dp469
g6
g12
sg7
(lp470
g0
(g1
g2
Ntp471
Rp472
(dp473
g6
g37
sg7
(lp474
sbasbag0
(g1
g2
Ntp475
Rp476
(dp477
g6
g37
sg7
(lp478
g0
(g1
g2
Ntp479
Rp480
(dp481
g6
I0
sg7
(lp482
g0
(g1
g2
Ntp483
Rp484
(dp485
g6
g37
sg7
(lp486
g0
(g1
g2
Ntp487
Rp488
(dp489
g6
I0
sg7
(lp490
g0
(g1
g2
Ntp491
Rp492
(dp493
g6
g37
sg7
(lp494
g0
(g1
g2
Ntp495
Rp496
(dp497
g6
g37
sg7
(lp498
sbasbasbasbasbasbasbasbasbasbasbasbag0
(g1
g2
Ntp499
Rp500
(dp501
g6
g37
sg7
(lp502
g0
(g1
g2
Ntp503
Rp504
(dp505
g6
I290
sg7
(lp506
g0
(g1
g2
Ntp507
Rp508
(dp509
g6
g12
sg7
(lp510
g0
(g1
g2
Ntp511
Rp512
(dp513
g6
I281
sg7
(lp514
g0
(g1
g2
Ntp515
Rp516
(dp517
g6
g12
sg7
(lp518
g0
(g1
g2
Ntp519
Rp520
(dp521
g6
g37
sg7
(lp522
sbasbag0
(g1
g2
Ntp523
Rp524
(dp525
g6
g37
sg7
(lp526
g0
(g1
g2
Ntp527
Rp528
(dp529
g6
I222
sg7
(lp530
g0
(g1
g2
Ntp531
Rp532
(dp533
g6
g12
sg7
(lp534
g0
(g1
g2
Ntp535
Rp536
(dp537
g6
g37
sg7
(lp538
sbasbag0
(g1
g2
Ntp539
Rp540
(dp541
g6
g37
sg7
(lp542
g0
(g1
g2
Ntp543
Rp544
(dp545
g6
g12
sg7
(lp546
sbasbasbasbasbasbag0
(g1
g2
Ntp547
Rp548
(dp549
g6
g37
sg7
(lp550
g0
(g1
g2
Ntp551
Rp552
(dp553
g6
I249
sg7
(lp554
g0
(g1
g2
Ntp555
Rp556
(dp557
g6
g12
sg7
(lp558
g0
(g1
g2
Ntp559
Rp560
(dp561
g6
I0
sg7
(lp562
g0
(g1
g2
Ntp563
Rp564
(dp565
g6
g37
sg7
(lp566
g0
(g1
g2
Ntp567
Rp568
(dp569
g6
I0
sg7
(lp570
g0
(g1
g2
Ntp571
Rp572
(dp573
g6
g37
sg7
(lp574
g0
(g1
g2
Ntp575
Rp576
(dp577
g6
I0
sg7
(lp578
g0
(g1
g2
Ntp579
Rp580
(dp581
g6
g37
sg7
(lp582
g0
(g1
g2
Ntp583
Rp584
(dp585
g6
g37
sg7
(lp586
sbasbasbasbasbasbasbasbag0
(g1
g2
Ntp587
Rp588
(dp589
g6
g37
sg7
(lp590
g0
(g1
g2
Ntp591
Rp592
(dp593
g6
I295
sg7
(lp594
g0
(g1
g2
Ntp595
Rp596
(dp597
g6
g12
sg7
(lp598
g0
(g1
g2
Ntp599
Rp600
(dp601
g6
g12
sg7
(lp602
sbasbag0
(g1
g2
Ntp603
Rp604
(dp605
g6
g37
sg7
(lp606
g0
(g1
g2
Ntp607
Rp608
(dp609
g6
I84
sg7
(lp610
g0
(g1
g2
Ntp611
Rp612
(dp613
g6
g12
sg7
(lp614
g0
(g1
g2
Ntp615
Rp616
(dp617
g6
g12
sg7
(lp618
sbasbag0
(g1
g2
Ntp619
Rp620
(dp621
g6
g37
sg7
(lp622
g0
(g1
g2
Ntp623
Rp624
(dp625
g6
I20
sg7
(lp626
g0
(g1
g2
Ntp627
Rp628
(dp629
g6
g12
sg7
(lp630
g0
(g1
g2
Ntp631
Rp632
(dp633
g6
g37
sg7
(lp634
sbasbag0
(g1
g2
Ntp635
Rp636
(dp637
g6
g37
sg7
(lp638
g0
(g1
g2
Ntp639
Rp640
(dp641
g6
g12
sg7
(lp642
sbasbasbasbasbasbasbasbasbasbasbasbasbasbasbasbasbasbasbasbag0
(g1
g2
Ntp643
Rp644
(dp645
g6
g37
sg7
(lp646
g0
(g1
g2
Ntp647
Rp648
(dp649
g6
I281
sg7
(lp650
g0
(g1
g2
Ntp651
Rp652
(dp653
g6
g12
sg7
(lp654
g0
(g1
g2
Ntp655
Rp656
(dp657
g6
I288
sg7
(lp658
g0
(g1
g2
Ntp659
Rp660
(dp661
g6
g12
sg7
(lp662
g0
(g1
g2
Ntp663
Rp664
(dp665
g6
I0
sg7
(lp666
g0
(g1
g2
Ntp667
Rp668
(dp669
g6
g37
sg7
(lp670
g0
(g1
g2
Ntp671
Rp672
(dp673
g6
I0
sg7
(lp674
g0
(g1
g2
Ntp675
Rp676
(dp677
g6
g37
sg7
(lp678
g0
(g1
g2
Ntp679
Rp680
(dp681
g6
I0
sg7
(lp682
g0
(g1
g2
Ntp683
Rp684
(dp685
g6
g37
sg7
(lp686
g0
(g1
g2
Ntp687
Rp688
(dp689
g6
I0
sg7
(lp690
g0
(g1
g2
Ntp691
Rp692
(dp693
g6
g37
sg7
(lp694
g0
(g1
g2
Ntp695
Rp696
(dp697
g6
I0
sg7
(lp698
g0
(g1
g2
Ntp699
Rp700
(dp701
g6
g37
sg7
(lp702
g0
(g1
g2
Ntp703
Rp704
(dp705
g6
I0
sg7
(lp706
g0
(g1
g2
Ntp707
Rp708
(dp709
g6
g37
sg7
(lp710
g0
(g1
g2
Ntp711
Rp712
(dp713
g6
I0
sg7
(lp714
g0
(g1
g2
Ntp715
Rp716
(dp717
g6
g37
sg7
(lp718
g0
(g1
g2
Ntp719
Rp720
(dp721
g6
g37
sg7
(lp722
sbasbasbasbasbasbasbasbasbasbasbasbasbasbasbasbag0
(g1
g2
Ntp723
Rp724
(dp725
g6
g37
sg7
(lp726
g0
(g1
g2
Ntp727
Rp728
(dp729
g6
I84
sg7
(lp730
g0
(g1
g2
Ntp731
Rp732
(dp733
g6
g12
sg7
(lp734
g0
(g1
g2
Ntp735
Rp736
(dp737
g6
I123
sg7
(lp738
g0
(g1
g2
Ntp739
Rp740
(dp741
g6
g12
sg7
(lp742
g0
(g1
g2
Ntp743
Rp744
(dp745
g6
I67
sg7
(lp746
g0
(g1
g2
Ntp747
Rp748
(dp749
g6
g12
sg7
(lp750
g0
(g1
g2
Ntp751
Rp752
(dp753
g6
g37
sg7
(lp754
sbasbag0
(g1
g2
Ntp755
Rp756
(dp757
g6
g37
sg7
(lp758
g0
(g1
g2
Ntp759
Rp760
(dp761
g6
I268
sg7
(lp762
g0
(g1
g2
Ntp763
Rp764
(dp765
g6
g12
sg7
(lp766
g0
(g1
g2
Ntp767
Rp768
(dp769
g6
I274
sg7
(lp770
g0
(g1
g2
Ntp771
Rp772
(dp773
g6
g12
sg7
(lp774
g0
(g1
g2
Ntp775
Rp776
(dp777
g6
I0
sg7
(lp778
g0
(g1
g2
Ntp779
Rp780
(dp781
g6
g37
sg7
(lp782
g0
(g1
g2
Ntp783
Rp784
(dp785
g6
I0
sg7
(lp786
g0
(g1
g2
Ntp787
Rp788
(dp789
g6
g37
sg7
(lp790
g0
(g1
g2
Ntp791
Rp792
(dp793
g6
g37
sg7
(lp794
sbasbasbasbasbasbag0
(g1
g2
Ntp795
Rp796
(dp797
g6
g37
sg7
(lp798
g0
(g1
g2
Ntp799
Rp800
(dp801
g6
I0
sg7
(lp802
g0
(g1
g2
Ntp803
Rp804
(dp805
g6
g37
sg7
(lp806
g0
(g1
g2
Ntp807
Rp808
(dp809
g6
I0
sg7
(lp810
g0
(g1
g2
Ntp811
Rp812
(dp813
g6
g37
sg7
(lp814
g0
(g1
g2
Ntp815
Rp816
(dp817
g6
g37
sg7
(lp818
sbasbasbasbasbasbasbasbag0
(g1
g2
Ntp819
Rp820
(dp821
g6
g37
sg7
(lp822
g0
(g1
g2
Ntp823
Rp824
(dp825
g6
I274
sg7
(lp826
g0
(g1
g2
Ntp827
Rp828
(dp829
g6
g12
sg7
(lp830
g0
(g1
g2
Ntp831
Rp832
(dp833
g6
I0
sg7
(lp834
g0
(g1
g2
Ntp835
Rp836
(dp837
g6
g37
sg7
(lp838
g0
(g1
g2
Ntp839
Rp840
(dp841
g6
I0
sg7
(lp842
g0
(g1
g2
Ntp843
Rp844
(dp845
g6
g37
sg7
(lp846
g0
(g1
g2
Ntp847
Rp848
(dp849
g6
g37
sg7
(lp850
sbasbasbasbasbasbag0
(g1
g2
Ntp851
Rp852
(dp853
g6
g37
sg7
(lp854
g0
(g1
g2
Ntp855
Rp856
(dp857
g6
I0
sg7
(lp858
g0
(g1
g2
Ntp859
Rp860
(dp861
g6
g37
sg7
(lp862
g0
(g1
g2
Ntp863
Rp864
(dp865
g6
I0
sg7
(lp866
g0
(g1
g2
Ntp867
Rp868
(dp869
g6
g37
sg7
(lp870
g0
(g1
g2
Ntp871
Rp872
(dp873
g6
g37
sg7
(lp874
sbasbasbasbasbasbasbasbasbasbasbasbag0
(g1
g2
Ntp875
Rp876
(dp877
g6
g37
sg7
(lp878
g0
(g1
g2
Ntp879
Rp880
(dp881
g6
I5
sg7
(lp882
g0
(g1
g2
Ntp883
Rp884
(dp885
g6
g12
sg7
(lp886
g0
(g1
g2
Ntp887
Rp888
(dp889
g6
g12
sg7
(lp890
sbasbag0
(g1
g2
Ntp891
Rp892
(dp893
g6
g37
sg7
(lp894
g0
(g1
g2
Ntp895
Rp896
(dp897
g6
I191
sg7
(lp898
g0
(g1
g2
Ntp899
Rp900
(dp901
g6
g12
sg7
(lp902
g0
(g1
g2
Ntp903
Rp904
(dp905
g6
g12
sg7
(lp906
sbasbag0
(g1
g2
Ntp907
Rp908
(dp909
g6
g37
sg7
(lp910
g0
(g1
g2
Ntp911
Rp912
(dp913
g6
I128
sg7
(lp914
g0
(g1
g2
Ntp915
Rp916
(dp917
g6
g12
sg7
(lp918
g0
(g1
g2
Ntp919
Rp920
(dp921
g6
I274
sg7
(lp922
g0
(g1
g2
Ntp923
Rp924
(dp925
g6
g12
sg7
(lp926
g0
(g1
g2
Ntp927
Rp928
(dp929
g6
I0
sg7
(lp930
g0
(g1
g2
Ntp931
Rp932
(dp933
g6
g37
sg7
(lp934
g0
(g1
g2
Ntp935
Rp936
(dp937
g6
g37
sg7
(lp938
sbasbasbasbag0
(g1
g2
Ntp939
Rp940
(dp941
g6
g37
sg7
(lp942
g0
(g1
g2
Ntp943
Rp944
(dp945
g6
g12
sg7
(lp946
sbasbasbasbag0
(g1
g2
Ntp947
Rp948
(dp949
g6
g37
sg7
(lp950
g0
(g1
g2
Ntp951
Rp952
(dp953
g6
I253
sg7
(lp954
g0
(g1
g2
Ntp955
Rp956
(dp957
g6
g12
sg7
(lp958
g0
(g1
g2
Ntp959
Rp960
(dp961
g6
I0
sg7
(lp962
g0
(g1
g2
Ntp963
Rp964
(dp965
g6
g37
sg7
(lp966
g0
(g1
g2
Ntp967
Rp968
(dp969
g6
g37
sg7
(lp970
sbasbasbasbag0
(g1
g2
Ntp971
Rp972
(dp973
g6
g37
sg7
(lp974
g0
(g1
g2
Ntp975
Rp976
(dp977
g6
I146
sg7
(lp978
g0
(g1
g2
Ntp979
Rp980
(dp981
g6
g12
sg7
(lp982
g0
(g1
g2
Ntp983
Rp984
(dp985
g6
g37
sg7
(lp986
sbasbag0
(g1
g2
Ntp987
Rp988
(dp989
g6
g37
sg7
(lp990
g0
(g1
g2
Ntp991
Rp992
(dp993
g6
g37
sg7
(lp994
sbasbasbasbasbasbasbasbasbasbasbasbasbasbag0
(g1
g2
Ntp995
Rp996
(dp997
g6
g37
sg7
(lp998
g0
(g1
g2
Ntp999
Rp1000
(dp1001
g6
I154
sg7
(lp1002
g0
(g1
g2
Ntp1003
Rp1004
(dp1005
g6
g12
sg7
(lp1006
g0
(g1
g2
Ntp1007
Rp1008
(dp1009
g6
g12
sg7
(lp1010
sbasbag0
(g1
g2
Ntp1011
Rp1012
(dp1013
g6
g37
sg7
(lp1014
g0
(g1
g2
Ntp1015
Rp1016
(dp1017
g6
I114
sg7
(lp1018
g0
(g1
g2
Ntp1019
Rp1020
(dp1021
g6
g12
sg7
(lp1022
g0
(g1
g2
Ntp1023
Rp1024
(dp1025
g6
g37
sg7
(lp1026
sbasbag0
(g1
g2
Ntp1027
Rp1028
(dp1029
g6
g37
sg7
(lp1030
g0
(g1
g2
Ntp1031
Rp1032
(dp1033
g6
I222
sg7
(lp1034
g0
(g1
g2
Ntp1035
Rp1036
(dp1037
g6
g12
sg7
(lp1038
g0
(g1
g2
Ntp1039
Rp1040
(dp1041
g6
I274
sg7
(lp1042
g0
(g1
g2
Ntp1043
Rp1044
(dp1045
g6
g12
sg7
(lp1046
g0
(g1
g2
Ntp1047
Rp1048
(dp1049
g6
g37
sg7
(lp1050
sbasbag0
(g1
g2
Ntp1051
Rp1052
(dp1053
g6
g37
sg7
(lp1054
g0
(g1
g2
Ntp1055
Rp1056
(dp1057
g6
g12
sg7
(lp1058
sbasbasbasbag0
(g1
g2
Ntp1059
Rp1060
(dp1061
g6
g37
sg7
(lp1062
g0
(g1
g2
Ntp1063
Rp1064
(dp1065
g6
I3
sg7
(lp1066
g0
(g1
g2
Ntp1067
Rp1068
(dp1069
g6
g12
sg7
(lp1070
g0
(g1
g2
Ntp1071
Rp1072
(dp1073
g6
g12
sg7
(lp1074
sbasbag0
(g1
g2
Ntp1075
Rp1076
(dp1077
g6
g37
sg7
(lp1078
g0
(g1
g2
Ntp1079
Rp1080
(dp1081
g6
I9
sg7
(lp1082
g0
(g1
g2
Ntp1083
Rp1084
(dp1085
g6
g12
sg7
(lp1086
g0
(g1
g2
Ntp1087
Rp1088
(dp1089
g6
g12
sg7
(lp1090
sbasbag0
(g1
g2
Ntp1091
Rp1092
(dp1093
g6
g37
sg7
(lp1094
g0
(g1
g2
Ntp1095
Rp1096
(dp1097
g6
I12
sg7
(lp1098
g0
(g1
g2
Ntp1099
Rp1100
(dp1101
g6
g12
sg7
(lp1102
g0
(g1
g2
Ntp1103
Rp1104
(dp1105
g6
g12
sg7
(lp1106
sbasbag0
(g1
g2
Ntp1107
Rp1108
(dp1109
g6
g37
sg7
(lp1110
g0
(g1
g2
Ntp1111
Rp1112
(dp1113
g6
g37
sg7
(lp1114
sbasbasbasbasbasbasbasbasbasbasbasbasbasbasbasbasbasbag0
(g1
g2
Ntp1115
Rp1116
(dp1117
g6
g37
sg7
(lp1118
g0
(g1
g2
Ntp1119
Rp1120
(dp1121
g6
I0
sg7
(lp1122
g0
(g1
g2
Ntp1123
Rp1124
(dp1125
g6
g12
sg7
(lp1126
g0
(g1
g2
Ntp1127
Rp1128
(dp1129
g6
I299
sg7
(lp1130
g0
(g1
g2
Ntp1131
Rp1132
(dp1133
g6
g12
sg7
(lp1134
g0
(g1
g2
Ntp1135
Rp1136
(dp1137
g6
I250
sg7
(lp1138
g0
(g1
g2
Ntp1139
Rp1140
(dp1141
g6
g12
sg7
(lp1142
g0
(g1
g2
Ntp1143
Rp1144
(dp1145
g6
I274
sg7
(lp1146
g0
(g1
g2
Ntp1147
Rp1148
(dp1149
g6
g12
sg7
(lp1150
g0
(g1
g2
Ntp1151
Rp1152
(dp1153
g6
I1
sg7
(lp1154
g0
(g1
g2
Ntp1155
Rp1156
(dp1157
g6
g37
sg7
(lp1158
g0
(g1
g2
Ntp1159
Rp1160
(dp1161
g6
I1
sg7
(lp1162
g0
(g1
g2
Ntp1163
Rp1164
(dp1165
g6
g37
sg7
(lp1166
g0
(g1
g2
Ntp1167
Rp1168
(dp1169
g6
I1
sg7
(lp1170
g0
(g1
g2
Ntp1171
Rp1172
(dp1173
g6
g37
sg7
(lp1174
g0
(g1
g2
Ntp1175
Rp1176
(dp1177
g6
I1
sg7
(lp1178
g0
(g1
g2
Ntp1179
Rp1180
(dp1181
g6
g37
sg7
(lp1182
g0
(g1
g2
Ntp1183
Rp1184
(dp1185
g6
g12
sg7
(lp1186
sbasbasbasbasbasbasbasbasbasbag0
(g1
g2
Ntp1187
Rp1188
(dp1189
g6
g37
sg7
(lp1190
g0
(g1
g2
Ntp1191
Rp1192
(dp1193
g6
g12
sg7
(lp1194
sbasbasbasbag0
(g1
g2
Ntp1195
Rp1196
(dp1197
g6
g37
sg7
(lp1198
g0
(g1
g2
Ntp1199
Rp1200
(dp1201
g6
g12
sg7
(lp1202
sbasbasbasbag0
(g1
g2
Ntp1203
Rp1204
(dp1205
g6
g37
sg7
(lp1206
g0
(g1
g2
Ntp1207
Rp1208
(dp1209
g6
I257
sg7
(lp1210
g0
(g1
g2
Ntp1211
Rp1212
(dp1213
g6
g12
sg7
(lp1214
g0
(g1
g2
Ntp1215
Rp1216
(dp1217
g6
g37
sg7
(lp1218
sbasbag0
(g1
g2
Ntp1219
Rp1220
(dp1221
g6
g37
sg7
(lp1222
g0
(g1
g2
Ntp1223
Rp1224
(dp1225
g6
I20
sg7
(lp1226
g0
(g1
g2
Ntp1227
Rp1228
(dp1229
g6
g12
sg7
(lp1230
g0
(g1
g2
Ntp1231
Rp1232
(dp1233
g6
g37
sg7
(lp1234
sbasbag0
(g1
g2
Ntp1235
Rp1236
(dp1237
g6
g37
sg7
(lp1238
g0
(g1
g2
Ntp1239
Rp1240
(dp1241
g6
I26
sg7
(lp1242
g0
(g1
g2
Ntp1243
Rp1244
(dp1245
g6
g12
sg7
(lp1246
g0
(g1
g2
Ntp1247
Rp1248
(dp1249
g6
g37
sg7
(lp1250
sbasbag0
(g1
g2
Ntp1251
Rp1252
(dp1253
g6
g37
sg7
(lp1254
g0
(g1
g2
Ntp1255
Rp1256
(dp1257
g6
I145
sg7
(lp1258
g0
(g1
g2
Ntp1259
Rp1260
(dp1261
g6
g12
sg7
(lp1262
g0
(g1
g2
Ntp1263
Rp1264
(dp1265
g6
g37
sg7
(lp1266
sbasbag0
(g1
g2
Ntp1267
Rp1268
(dp1269
g6
g37
sg7
(lp1270
g0
(g1
g2
Ntp1271
Rp1272
(dp1273
g6
I243
sg7
(lp1274
g0
(g1
g2
Ntp1275
Rp1276
(dp1277
g6
g12
sg7
(lp1278
g0
(g1
g2
Ntp1279
Rp1280
(dp1281
g6
g37
sg7
(lp1282
sbasbag0
(g1
g2
Ntp1283
Rp1284
(dp1285
g6
g37
sg7
(lp1286
g0
(g1
g2
Ntp1287
Rp1288
(dp1289
g6
I277
sg7
(lp1290
g0
(g1
g2
Ntp1291
Rp1292
(dp1293
g6
g12
sg7
(lp1294
g0
(g1
g2
Ntp1295
Rp1296
(dp1297
g6
g37
sg7
(lp1298
sbasbag0
(g1
g2
Ntp1299
Rp1300
(dp1301
g6
g37
sg7
(lp1302
g0
(g1
g2
Ntp1303
Rp1304
(dp1305
g6
g12
sg7
(lp1306
sbasbasbasbasbasbasbasbasbasbasbasbasbasbasbasbag0
(g1
g2
Ntp1307
Rp1308
(dp1309
g6
g37
sg7
(lp1310
g0
(g1
g2
Ntp1311
Rp1312
(dp1313
g6
I243
sg7
(lp1314
g0
(g1
g2
Ntp1315
Rp1316
(dp1317
g6
g12
sg7
(lp1318
g0
(g1
g2
Ntp1319
Rp1320
(dp1321
g6
I117
sg7
(lp1322
g0
(g1
g2
Ntp1323
Rp1324
(dp1325
g6
g12
sg7
(lp1326
g0
(g1
g2
Ntp1327
Rp1328
(dp1329
g6
I274
sg7
(lp1330
g0
(g1
g2
Ntp1331
Rp1332
(dp1333
g6
g12
sg7
(lp1334
g0
(g1
g2
Ntp1335
Rp1336
(dp1337
g6
g37
sg7
(lp1338
sbasbag0
(g1
g2
Ntp1339
Rp1340
(dp1341
g6
g37
sg7
(lp1342
g0
(g1
g2
Ntp1343
Rp1344
(dp1345
g6
I1
sg7
(lp1346
g0
(g1
g2
Ntp1347
Rp1348
(dp1349
g6
g37
sg7
(lp1350
g0
(g1
g2
Ntp1351
Rp1352
(dp1353
g6
I1
sg7
(lp1354
g0
(g1
g2
Ntp1355
Rp1356
(dp1357
g6
g37
sg7
(lp1358
g0
(g1
g2
Ntp1359
Rp1360
(dp1361
g6
I1
sg7
(lp1362
g0
(g1
g2
Ntp1363
Rp1364
(dp1365
g6
g37
sg7
(lp1366
g0
(g1
g2
Ntp1367
Rp1368
(dp1369
g6
I1
sg7
(lp1370
g0
(g1
g2
Ntp1371
Rp1372
(dp1373
g6
g37
sg7
(lp1374
g0
(g1
g2
Ntp1375
Rp1376
(dp1377
g6
g37
sg7
(lp1378
sbasbasbasbasbasbasbasbasbasbasbasbag0
(g1
g2
Ntp1379
Rp1380
(dp1381
g6
g37
sg7
(lp1382
g0
(g1
g2
Ntp1383
Rp1384
(dp1385
g6
I138
sg7
(lp1386
g0
(g1
g2
Ntp1387
Rp1388
(dp1389
g6
g12
sg7
(lp1390
g0
(g1
g2
Ntp1391
Rp1392
(dp1393
g6
g37
sg7
(lp1394
sbasbag0
(g1
g2
Ntp1395
Rp1396
(dp1397
g6
g37
sg7
(lp1398
g0
(g1
g2
Ntp1399
Rp1400
(dp1401
g6
I232
sg7
(lp1402
g0
(g1
g2
Ntp1403
Rp1404
(dp1405
g6
g12
sg7
(lp1406
g0
(g1
g2
Ntp1407
Rp1408
(dp1409
g6
g37
sg7
(lp1410
sbasbag0
(g1
g2
Ntp1411
Rp1412
(dp1413
g6
g37
sg7
(lp1414
g0
(g1
g2
Ntp1415
Rp1416
(dp1417
g6
I189
sg7
(lp1418
g0
(g1
g2
Ntp1419
Rp1420
(dp1421
g6
g12
sg7
(lp1422
g0
(g1
g2
Ntp1423
Rp1424
(dp1425
g6
I274
sg7
(lp1426
g0
(g1
g2
Ntp1427
Rp1428
(dp1429
g6
g12
sg7
(lp1430
g0
(g1
g2
Ntp1431
Rp1432
(dp1433
g6
I1
sg7
(lp1434
g0
(g1
g2
Ntp1435
Rp1436
(dp1437
g6
g37
sg7
(lp1438
g0
(g1
g2
Ntp1439
Rp1440
(dp1441
g6
g37
sg7
(lp1442
sbasbasbasbag0
(g1
g2
Ntp1443
Rp1444
(dp1445
g6
g37
sg7
(lp1446
g0
(g1
g2
Ntp1447
Rp1448
(dp1449
g6
I1
sg7
(lp1450
g0
(g1
g2
Ntp1451
Rp1452
(dp1453
g6
g37
sg7
(lp1454
g0
(g1
g2
Ntp1455
Rp1456
(dp1457
g6
g37
sg7
(lp1458
sbasbasbasbasbasbag0
(g1
g2
Ntp1459
Rp1460
(dp1461
g6
g37
sg7
(lp1462
g0
(g1
g2
Ntp1463
Rp1464
(dp1465
g6
I145
sg7
(lp1466
g0
(g1
g2
Ntp1467
Rp1468
(dp1469
g6
g12
sg7
(lp1470
g0
(g1
g2
Ntp1471
Rp1472
(dp1473
g6
I274
sg7
(lp1474
g0
(g1
g2
Ntp1475
Rp1476
(dp1477
g6
g12
sg7
(lp1478
g0
(g1
g2
Ntp1479
Rp1480
(dp1481
g6
g37
sg7
(lp1482
sbasbag0
(g1
g2
Ntp1483
Rp1484
(dp1485
g6
g37
sg7
(lp1486
g0
(g1
g2
Ntp1487
Rp1488
(dp1489
g6
g37
sg7
(lp1490
sbasbasbasbag0
(g1
g2
Ntp1491
Rp1492
(dp1493
g6
g37
sg7
(lp1494
g0
(g1
g2
Ntp1495
Rp1496
(dp1497
g6
I213
sg7
(lp1498
g0
(g1
g2
Ntp1499
Rp1500
(dp1501
g6
g12
sg7
(lp1502
g0
(g1
g2
Ntp1503
Rp1504
(dp1505
g6
g37
sg7
(lp1506
sbasbag0
(g1
g2
Ntp1507
Rp1508
(dp1509
g6
g37
sg7
(lp1510
g0
(g1
g2
Ntp1511
Rp1512
(dp1513
g6
g37
sg7
(lp1514
sbasbasbasbasbasbasbasbasbasbasbasbasbasbag0
(g1
g2
Ntp1515
Rp1516
(dp1517
g6
g37
sg7
(lp1518
g0
(g1
g2
Ntp1519
Rp1520
(dp1521
g6
I84
sg7
(lp1522
g0
(g1
g2
Ntp1523
Rp1524
(dp1525
g6
g12
sg7
(lp1526
g0
(g1
g2
Ntp1527
Rp1528
(dp1529
g6
I155
sg7
(lp1530
g0
(g1
g2
Ntp1531
Rp1532
(dp1533
g6
g12
sg7
(lp1534
g0
(g1
g2
Ntp1535
Rp1536
(dp1537
g6
I1
sg7
(lp1538
g0
(g1
g2
Ntp1539
Rp1540
(dp1541
g6
g12
sg7
(lp1542
g0
(g1
g2
Ntp1543
Rp1544
(dp1545
g6
I1
sg7
(lp1546
g0
(g1
g2
Ntp1547
Rp1548
(dp1549
g6
g12
sg7
(lp1550
g0
(g1
g2
Ntp1551
Rp1552
(dp1553
g6
I1
sg7
(lp1554
g0
(g1
g2
Ntp1555
Rp1556
(dp1557
g6
g12
sg7
(lp1558
g0
(g1
g2
Ntp1559
Rp1560
(dp1561
g6
I1
sg7
(lp1562
g0
(g1
g2
Ntp1563
Rp1564
(dp1565
g6
g12
sg7
(lp1566
g0
(g1
g2
Ntp1567
Rp1568
(dp1569
g6
g37
sg7
(lp1570
sbasbasbasbasbasbasbasbasbasbag0
(g1
g2
Ntp1571
Rp1572
(dp1573
g6
g37
sg7
(lp1574
g0
(g1
g2
Ntp1575
Rp1576
(dp1577
g6
I288
sg7
(lp1578
g0
(g1
g2
Ntp1579
Rp1580
(dp1581
g6
g12
sg7
(lp1582
g0
(g1
g2
Ntp1583
Rp1584
(dp1585
g6
I274
sg7
(lp1586
g0
(g1
g2
Ntp1587
Rp1588
(dp1589
g6
g12
sg7
(lp1590
g0
(g1
g2
Ntp1591
Rp1592
(dp1593
g6
I1
sg7
(lp1594
g0
(g1
g2
Ntp1595
Rp1596
(dp1597
g6
g37
sg7
(lp1598
g0
(g1
g2
Ntp1599
Rp1600
(dp1601
g6
I1
sg7
(lp1602
g0
(g1
g2
Ntp1603
Rp1604
(dp1605
g6
g37
sg7
(lp1606
g0
(g1
g2
Ntp1607
Rp1608
(dp1609
g6
g12
sg7
(lp1610
sbasbasbasbasbasbag0
(g1
g2
Ntp1611
Rp1612
(dp1613
g6
g37
sg7
(lp1614
g0
(g1
g2
Ntp1615
Rp1616
(dp1617
g6
g37
sg7
(lp1618
sbasbasbasbag0
(g1
g2
Ntp1619
Rp1620
(dp1621
g6
g37
sg7
(lp1622
g0
(g1
g2
Ntp1623
Rp1624
(dp1625
g6
I128
sg7
(lp1626
g0
(g1
g2
Ntp1627
Rp1628
(dp1629
g6
g12
sg7
(lp1630
g0
(g1
g2
Ntp1631
Rp1632
(dp1633
g6
g12
sg7
(lp1634
sbasbag0
(g1
g2
Ntp1635
Rp1636
(dp1637
g6
g37
sg7
(lp1638
g0
(g1
g2
Ntp1639
Rp1640
(dp1641
g6
I289
sg7
(lp1642
g0
(g1
g2
Ntp1643
Rp1644
(dp1645
g6
g12
sg7
(lp1646
g0
(g1
g2
Ntp1647
Rp1648
(dp1649
g6
g12
sg7
(lp1650
sbasbag0
(g1
g2
Ntp1651
Rp1652
(dp1653
g6
g37
sg7
(lp1654
g0
(g1
g2
Ntp1655
Rp1656
(dp1657
g6
I274
sg7
(lp1658
g0
(g1
g2
Ntp1659
Rp1660
(dp1661
g6
g12
sg7
(lp1662
g0
(g1
g2
Ntp1663
Rp1664
(dp1665
g6
g37
sg7
(lp1666
sbasbag0
(g1
g2
Ntp1667
Rp1668
(dp1669
g6
g37
sg7
(lp1670
g0
(g1
g2
Ntp1671
Rp1672
(dp1673
g6
g37
sg7
(lp1674
sbasbasbasbasbasbasbasbasbasbasbasbag0
(g1
g2
Ntp1675
Rp1676
(dp1677
g6
g37
sg7
(lp1678
g0
(g1
g2
Ntp1679
Rp1680
(dp1681
g6
I274
sg7
(lp1682
g0
(g1
g2
Ntp1683
Rp1684
(dp1685
g6
g12
sg7
(lp1686
g0
(g1
g2
Ntp1687
Rp1688
(dp1689
g6
I219
sg7
(lp1690
g0
(g1
g2
Ntp1691
Rp1692
(dp1693
g6
g12
sg7
(lp1694
g0
(g1
g2
Ntp1695
Rp1696
(dp1697
g6
I252
sg7
(lp1698
g0
(g1
g2
Ntp1699
Rp1700
(dp1701
g6
g12
sg7
(lp1702
g0
(g1
g2
Ntp1703
Rp1704
(dp1705
g6
I1
sg7
(lp1706
g0
(g1
g2
Ntp1707
Rp1708
(dp1709
g6
g37
sg7
(lp1710
g0
(g1
g2
Ntp1711
Rp1712
(dp1713
g6
I1
sg7
(lp1714
g0
(g1
g2
Ntp1715
Rp1716
(dp1717
g6
g37
sg7
(lp1718
g0
(g1
g2
Ntp1719
Rp1720
(dp1721
g6
g37
sg7
(lp1722
sbasbasbasbasbasbag0
(g1
g2
Ntp1723
Rp1724
(dp1725
g6
g37
sg7
(lp1726
g0
(g1
g2
Ntp1727
Rp1728
(dp1729
g6
I176
sg7
(lp1730
g0
(g1
g2
Ntp1731
Rp1732
(dp1733
g6
g12
sg7
(lp1734
g0
(g1
g2
Ntp1735
Rp1736
(dp1737
g6
g37
sg7
(lp1738
sbasbag0
(g1
g2
Ntp1739
Rp1740
(dp1741
g6
g37
sg7
(lp1742
g0
(g1
g2
Ntp1743
Rp1744
(dp1745
g6
I293
sg7
(lp1746
g0
(g1
g2
Ntp1747
Rp1748
(dp1749
g6
g12
sg7
(lp1750
g0
(g1
g2
Ntp1751
Rp1752
(dp1753
g6
g37
sg7
(lp1754
sbasbag0
(g1
g2
Ntp1755
Rp1756
(dp1757
g6
g37
sg7
(lp1758
g0
(g1
g2
Ntp1759
Rp1760
(dp1761
g6
g37
sg7
(lp1762
sbasbasbasbasbasbasbasbag0
(g1
g2
Ntp1763
Rp1764
(dp1765
g6
g37
sg7
(lp1766
g0
(g1
g2
Ntp1767
Rp1768
(dp1769
g6
I162
sg7
(lp1770
g0
(g1
g2
Ntp1771
Rp1772
(dp1773
g6
g12
sg7
(lp1774
g0
(g1
g2
Ntp1775
Rp1776
(dp1777
g6
I279
sg7
(lp1778
g0
(g1
g2
Ntp1779
Rp1780
(dp1781
g6
g12
sg7
(lp1782
g0
(g1
g2
Ntp1783
Rp1784
(dp1785
g6
g12
sg7
(lp1786
sbasbag0
(g1
g2
Ntp1787
Rp1788
(dp1789
g6
g37
sg7
(lp1790
g0
(g1
g2
Ntp1791
Rp1792
(dp1793
g6
I276
sg7
(lp1794
g0
(g1
g2
Ntp1795
Rp1796
(dp1797
g6
g12
sg7
(lp1798
g0
(g1
g2
Ntp1799
Rp1800
(dp1801
g6
g12
sg7
(lp1802
sbasbag0
(g1
g2
Ntp1803
Rp1804
(dp1805
g6
g37
sg7
(lp1806
g0
(g1
g2
Ntp1807
Rp1808
(dp1809
g6
g37
sg7
(lp1810
sbasbasbasbasbasbag0
(g1
g2
Ntp1811
Rp1812
(dp1813
g6
g37
sg7
(lp1814
g0
(g1
g2
Ntp1815
Rp1816
(dp1817
g6
I194
sg7
(lp1818
g0
(g1
g2
Ntp1819
Rp1820
(dp1821
g6
g12
sg7
(lp1822
g0
(g1
g2
Ntp1823
Rp1824
(dp1825
g6
g12
sg7
(lp1826
sbasbag0
(g1
g2
Ntp1827
Rp1828
(dp1829
g6
g37
sg7
(lp1830
g0
(g1
g2
Ntp1831
Rp1832
(dp1833
g6
I297
sg7
(lp1834
g0
(g1
g2
Ntp1835
Rp1836
(dp1837
g6
g12
sg7
(lp1838
g0
(g1
g2
Ntp1839
Rp1840
(dp1841
g6
g12
sg7
(lp1842
sbasbag0
(g1
g2
Ntp1843
Rp1844
(dp1845
g6
g37
sg7
(lp1846
g0
(g1
g2
Ntp1847
Rp1848
(dp1849
g6
g37
sg7
(lp1850
sbasbasbasbasbasbasbasbasbasbag0
(g1
g2
Ntp1851
Rp1852
(dp1853
g6
g37
sg7
(lp1854
g0
(g1
g2
Ntp1855
Rp1856
(dp1857
g6
I1
sg7
(lp1858
g0
(g1
g2
Ntp1859
Rp1860
(dp1861
g6
g12
sg7
(lp1862
g0
(g1
g2
Ntp1863
Rp1864
(dp1865
g6
I148
sg7
(lp1866
g0
(g1
g2
Ntp1867
Rp1868
(dp1869
g6
g12
sg7
(lp1870
g0
(g1
g2
Ntp1871
Rp1872
(dp1873
g6
g12
sg7
(lp1874
sbasbag0
(g1
g2
Ntp1875
Rp1876
(dp1877
g6
g37
sg7
(lp1878
g0
(g1
g2
Ntp1879
Rp1880
(dp1881
g6
I283
sg7
(lp1882
g0
(g1
g2
Ntp1883
Rp1884
(dp1885
g6
g12
sg7
(lp1886
g0
(g1
g2
Ntp1887
Rp1888
(dp1889
g6
I197
sg7
(lp1890
g0
(g1
g2
Ntp1891
Rp1892
(dp1893
g6
g12
sg7
(lp1894
g0
(g1
g2
Ntp1895
Rp1896
(dp1897
g6
g37
sg7
(lp1898
sbasbag0
(g1
g2
Ntp1899
Rp1900
(dp1901
g6
g37
sg7
(lp1902
g0
(g1
g2
Ntp1903
Rp1904
(dp1905
g6
g12
sg7
(lp1906
sbasbasbasbag0
(g1
g2
Ntp1907
Rp1908
(dp1909
g6
g37
sg7
(lp1910
g0
(g1
g2
Ntp1911
Rp1912
(dp1913
g6
I239
sg7
(lp1914
g0
(g1
g2
Ntp1915
Rp1916
(dp1917
g6
S'-0.031195922545864674'
p1918
sg7
(lp1919
g0
(g1
g2
Ntp1920
Rp1921
(dp1922
g6
g37
sg7
(lp1923
sbasbag0
(g1
g2
Ntp1924
Rp1925
(dp1926
g6
S'0.000786881495005734'
p1927
sg7
(lp1928
g0
(g1
g2
Ntp1929
Rp1930
(dp1931
g6
g37
sg7
(lp1932
sbasbasbasbasbasbasbasbag0
(g1
g2
Ntp1933
Rp1934
(dp1935
g6
g37
sg7
(lp1936
g0
(g1
g2
Ntp1937
Rp1938
(dp1939
g6
I220
sg7
(lp1940
g0
(g1
g2
Ntp1941
Rp1942
(dp1943
g6
g12
sg7
(lp1944
g0
(g1
g2
Ntp1945
Rp1946
(dp1947
g6
I276
sg7
(lp1948
g0
(g1
g2
Ntp1949
Rp1950
(dp1951
g6
g12
sg7
(lp1952
g0
(g1
g2
Ntp1953
Rp1954
(dp1955
g6
g12
sg7
(lp1956
sbasbag0
(g1
g2
Ntp1957
Rp1958
(dp1959
g6
g37
sg7
(lp1960
g0
(g1
g2
Ntp1961
Rp1962
(dp1963
g6
I283
sg7
(lp1964
g0
(g1
g2
Ntp1965
Rp1966
(dp1967
g6
g12
sg7
(lp1968
g0
(g1
g2
Ntp1969
Rp1970
(dp1971
g6
g12
sg7
(lp1972
sbasbag0
(g1
g2
Ntp1973
Rp1974
(dp1975
g6
g37
sg7
(lp1976
g0
(g1
g2
Ntp1977
Rp1978
(dp1979
g6
g12
sg7
(lp1980
sbasbasbasbasbasbag0
(g1
g2
Ntp1981
Rp1982
(dp1983
g6
g37
sg7
(lp1984
g0
(g1
g2
Ntp1985
Rp1986
(dp1987
g6
I153
sg7
(lp1988
g0
(g1
g2
Ntp1989
Rp1990
(dp1991
g6
g12
sg7
(lp1992
g0
(g1
g2
Ntp1993
Rp1994
(dp1995
g6
I294
sg7
(lp1996
g0
(g1
g2
Ntp1997
Rp1998
(dp1999
g6
g12
sg7
(lp2000
g0
(g1
g2
Ntp2001
Rp2002
(dp2003
g6
g12
sg7
(lp2004
sbasbag0
(g1
g2
Ntp2005
Rp2006
(dp2007
g6
g37
sg7
(lp2008
g0
(g1
g2
Ntp2009
Rp2010
(dp2011
g6
g12
sg7
(lp2012
sbasbasbasbag0
(g1
g2
Ntp2013
Rp2014
(dp2015
g6
g37
sg7
(lp2016
g0
(g1
g2
Ntp2017
Rp2018
(dp2019
g6
I114
sg7
(lp2020
g0
(g1
g2
Ntp2021
Rp2022
(dp2023
g6
g12
sg7
(lp2024
g0
(g1
g2
Ntp2025
Rp2026
(dp2027
g6
g37
sg7
(lp2028
sbasbag0
(g1
g2
Ntp2029
Rp2030
(dp2031
g6
g37
sg7
(lp2032
g0
(g1
g2
Ntp2033
Rp2034
(dp2035
g6
g37
sg7
(lp2036
sbasbasbasbasbasbasbasbasbasbasbasbasbasbasbasbasbasbasbasbag0
(g1
g2
Ntp2037
Rp2038
(dp2039
g6
S'74'
p2040
sg7
(lp2041
g0
(g1
g2
Ntp2042
Rp2043
(dp2044
g6
S'class'
p2045
sg7
(lp2046
sbasbasb.